target datalayout = "e-m:e-p270:32:32-p271:32:32-p272:64:64-i64:64-i128:128-f80:128-n8:16:32:64-S128"
target triple = "x86_64-pc-linux-gnu"

%struct.wscbor_chunk_t = type { ptr, i32, i32, i32, ptr, ptr, i32, i8, i64 }
%struct._wscbor_chunk_priv_t = type { ptr, ptr, ptr }

; Function Attrs: null_pointer_is_valid sspstrong uwtable
define ptr @proto_tree_add_cbor_strlen(ptr noundef %0, i32 noundef %1, ptr noundef %2, ptr noundef %3, ptr noundef %4) #0 {
  %6 = alloca ptr, align 8
  %7 = alloca i32, align 4
  %8 = alloca ptr, align 8
  %9 = alloca ptr, align 8
  %10 = alloca ptr, align 8
  %11 = alloca i32, align 4
  %12 = alloca ptr, align 8
  store ptr %0, ptr %6, align 8
  store i32 %1, ptr %7, align 4
  store ptr %2, ptr %8, align 8
  store ptr %3, ptr %9, align 8
  store ptr %4, ptr %10, align 8
  call void @llvm.lifetime.start.p0(i64 4, ptr %11) #7
  %13 = load ptr, ptr %10, align 8
  %14 = getelementptr inbounds nuw %struct.wscbor_chunk_t, ptr %13, i32 0, i32 0
  %15 = load ptr, ptr %14, align 8
  %16 = getelementptr inbounds nuw %struct._wscbor_chunk_priv_t, ptr %15, i32 0, i32 2
  %17 = load ptr, ptr %16, align 8
  %18 = icmp ne ptr %17, null
  br i1 %18, label %19, label %26

19:                                               ; preds = %5
  %20 = load ptr, ptr %10, align 8
  %21 = getelementptr inbounds nuw %struct.wscbor_chunk_t, ptr %20, i32 0, i32 0
  %22 = load ptr, ptr %21, align 8
  %23 = getelementptr inbounds nuw %struct._wscbor_chunk_priv_t, ptr %22, i32 0, i32 2
  %24 = load ptr, ptr %23, align 8
  %25 = call i32 @tvb_reported_length(ptr noundef %24)
  br label %27

26:                                               ; preds = %5
  br label %27

27:                                               ; preds = %26, %19
  %28 = phi i32 [ %25, %19 ], [ 0, %26 ]
  store i32 %28, ptr %11, align 4
  call void @llvm.lifetime.start.p0(i64 8, ptr %12) #7
  %29 = load ptr, ptr %6, align 8
  %30 = load i32, ptr %7, align 4
  %31 = load ptr, ptr %9, align 8
  %32 = load ptr, ptr %10, align 8
  %33 = getelementptr inbounds nuw %struct.wscbor_chunk_t, ptr %32, i32 0, i32 1
  %34 = load i32, ptr %33, align 8
  %35 = load ptr, ptr %10, align 8
  %36 = getelementptr inbounds nuw %struct.wscbor_chunk_t, ptr %35, i32 0, i32 2
  %37 = load i32, ptr %36, align 4
  %38 = load i32, ptr %11, align 4
  %39 = zext i32 %38 to i64
  %40 = call ptr @proto_tree_add_uint64(ptr noundef %29, i32 noundef %30, ptr noundef %31, i32 noundef %34, i32 noundef %37, i64 noundef %39)
  store ptr %40, ptr %12, align 8
  %41 = load ptr, ptr %12, align 8
  call void @llvm.lifetime.end.p0(i64 8, ptr %12) #7
  call void @llvm.lifetime.end.p0(i64 4, ptr %11) #7
  ret ptr %41
}