; Function Attrs: null_pointer_is_valid sspstrong uwtable
define ptr @proto_tree_add_cbor_strlen(ptr noundef %0, i32 noundef %1, ptr noundef readnone captures(none) %2, ptr noundef %3, ptr noundef readonly captures(none) %4) local_unnamed_addr #0 {
  %6 = load ptr, ptr %4, align 8
  %7 = getelementptr inbounds nuw i8, ptr %6, i64 16
  %8 = load ptr, ptr %7, align 8
  %.not = icmp eq ptr %8, null
  br i1 %.not, label %12, label %9

9:                                                ; preds = %5
  %10 = tail call i32 @tvb_reported_length(ptr noundef nonnull %8)
  %11 = zext i32 %10 to i64
  br label %12

12:                                               ; preds = %5, %9
  %13 = phi i64 [ %11, %9 ], [ 0, %5 ]
  %14 = getelementptr inbounds nuw i8, ptr %4, i64 8
  %15 = load i32, ptr %14, align 8
  %16 = getelementptr inbounds nuw i8, ptr %4, i64 12
  %17 = load i32, ptr %16, align 4
  %18 = tail call ptr @proto_tree_add_uint64(ptr noundef %0, i32 noundef %1, ptr noundef %3, i32 noundef %15, i32 noundef %17, i64 noundef %13)
  ret ptr %18
}